target datalayout = "e-m:e-p270:32:32-p271:32:32-p272:64:64-i64:64-i128:128-f80:128-n8:16:32:64-S128"
target triple = "x86_64-unknown-linux-gnu"

%struct.AioContext = type { %struct._GSource, %struct.QemuRecMutex, ptr, %struct.AioHandlerList, %struct.AioHandlerList, i32, %struct.QemuLockCnt, %struct.BHList, %struct.anon.1, i8, %struct.EventNotifier, %struct.anon.2, ptr, i32, i32, ptr, ptr, %struct.io_uring, %struct.AioHandlerSList, %struct.QEMUTimerListGroup, i32, i64, i64, i64, i64, i64, %struct.AioHandlerList, i8, i32, ptr }
%struct._GSource = type { ptr, ptr, ptr, i32, ptr, i32, i32, i32, ptr, ptr, ptr, ptr, ptr }
%struct.QemuRecMutex = type { %struct.QemuMutex }
%struct.QemuMutex = type { %union.pthread_mutex_t, i8 }
%union.pthread_mutex_t = type { %struct.__pthread_mutex_s }
%struct.__pthread_mutex_s = type { i32, i32, i32, i32, i32, i16, i16, %struct.__pthread_internal_list }
%struct.__pthread_internal_list = type { ptr, ptr }
%struct.QemuLockCnt = type { i32 }
%struct.BHList = type { ptr }
%struct.anon.1 = type { ptr, ptr }
%struct.EventNotifier = type { i32, i32, i8 }
%struct.anon.2 = type { ptr }
%struct.io_uring = type { %struct.io_uring_sq, %struct.io_uring_cq, i32, i32, i32, [3 x i32] }
%struct.io_uring_sq = type { ptr, ptr, ptr, ptr, ptr, ptr, ptr, ptr, i32, i32, i64, ptr, [4 x i32] }
%struct.io_uring_cq = type { ptr, ptr, ptr, ptr, ptr, ptr, ptr, i64, ptr, [4 x i32] }
%struct.AioHandlerSList = type { ptr }
%struct.QEMUTimerListGroup = type { [4 x ptr] }
%struct.AioHandlerList = type { ptr }

@.str = private unnamed_addr constant [21 x i8] c"../qemu/util/async.c\00", align 1
@__func__.aio_notify = private unnamed_addr constant [11 x i8] c"aio_notify\00", align 1

; Function Attrs: nounwind sspstrong uwtable
define dso_local void @aio_notify(ptr noundef %ctx) #0 {
entry:
  %ctx.addr = alloca ptr, align 8
  %.atomictmp = alloca i8, align 1
  %tmp = alloca i32, align 4
  %atomic-temp = alloca i32, align 4
  store ptr %ctx, ptr %ctx.addr, align 8
  call void asm sideeffect "", "~{memory},~{dirflag},~{fpsr},~{flags}"() #11, !srcloc !13
  fence release
  br label %do.body

do.body:                                          ; preds = %entry
  br label %while.cond

while.cond:                                       ; preds = %do.end, %do.body
  br i1 false, label %while.body, label %while.end

while.body:                                       ; preds = %while.cond
  br label %do.body1

do.body1:                                         ; preds = %while.body
  call void @g_assertion_message_expr(ptr noundef null, ptr noundef @.str, i32 noundef 492, ptr noundef @__func__.aio_notify, ptr noundef null) #10
  unreachable

do.end:                                           ; No predecessors!
  br label %while.cond

while.end:                                        ; preds = %while.cond
  %0 = load ptr, ptr %ctx.addr, align 8
  %notified = getelementptr inbounds %struct.AioContext, ptr %0, i32 0, i32 9
  store i8 1, ptr %.atomictmp, align 1
  %1 = load i8, ptr %.atomictmp, align 1
  store atomic i8 %1, ptr %notified monotonic, align 8
  br label %do.end2

do.end2:                                          ; preds = %while.end
  call void asm sideeffect "", "~{memory},~{dirflag},~{fpsr},~{flags}"() #11, !srcloc !14
  fence seq_cst
  br label %while.cond3

while.cond3:                                      ; preds = %do.end6, %do.end2
  br i1 false, label %while.body4, label %while.end7

while.body4:                                      ; preds = %while.cond3
  br label %do.body5

do.body5:                                         ; preds = %while.body4
  call void @g_assertion_message_expr(ptr noundef null, ptr noundef @.str, i32 noundef 499, ptr noundef @__func__.aio_notify, ptr noundef null) #10
  unreachable

do.end6:                                          ; No predecessors!
  br label %while.cond3

while.end7:                                       ; preds = %while.cond3
  %2 = load ptr, ptr %ctx.addr, align 8
  %notify_me = getelementptr inbounds %struct.AioContext, ptr %2, i32 0, i32 5
  %3 = load atomic i32, ptr %notify_me monotonic, align 8
  store i32 %3, ptr %atomic-temp, align 4
  %4 = load i32, ptr %atomic-temp, align 4
  store i32 %4, ptr %tmp, align 4
  %5 = load i32, ptr %tmp, align 4
  %tobool = icmp ne i32 %5, 0
  br i1 %tobool, label %if.then, label %if.end

if.then:                                          ; preds = %while.end7
  %6 = load ptr, ptr %ctx.addr, align 8
  %notifier = getelementptr inbounds %struct.AioContext, ptr %6, i32 0, i32 10
  %call = call i32 @event_notifier_set(ptr noundef %notifier)
  br label %if.end

if.end:                                           ; preds = %if.then, %while.end7
  ret void
}