; Function Attrs: nounwind sspstrong uwtable
define dso_local void @aio_notify(ptr noundef %ctx) local_unnamed_addr #0 {
entry:
  tail call void asm sideeffect "", "~{memory},~{dirflag},~{fpsr},~{flags}"() #13, !srcloc !7
  fence release
  %notified = getelementptr inbounds nuw i8, ptr %ctx, i64 200
  store atomic i8 1, ptr %notified monotonic, align 8
  tail call void asm sideeffect "", "~{memory},~{dirflag},~{fpsr},~{flags}"() #13, !srcloc !8
  fence seq_cst
  %notify_me = getelementptr inbounds nuw i8, ptr %ctx, i64 168
  %0 = load atomic i32, ptr %notify_me monotonic, align 8
  %tobool.not = icmp eq i32 %0, 0
  br i1 %tobool.not, label %if.end, label %if.then

if.then:                                          ; preds = %entry
  %notifier = getelementptr inbounds nuw i8, ptr %ctx, i64 204
  %call = tail call i32 @event_notifier_set(ptr noundef nonnull %notifier) #13
  br label %if.end

if.end:                                           ; preds = %if.then, %entry
  ret void
}